target datalayout = "e-m:e-p270:32:32-p271:32:32-p272:64:64-i64:64-i128:128-f80:128-n8:16:32:64-S128"
target triple = "x86_64-pc-linux-gnu"

%struct.smt_params_helper = type { ptr, %class.params_ref }
%class.params_ref = type { ptr }
%"struct.lp::lp_settings" = type <{ %"class.lp::lp_settings::default_lp_resource_limit", ptr, ptr, ptr, %"struct.lp::statistics", %class.random_gen, i32, i32, i32, i8, [3 x i8], i32, i8, [3 x i8], i32, double, i8, i8, [2 x i8], i32, i32, i8, [3 x i8], i32, i8, [3 x i8], i32, i8, [3 x i8], i32, i32, i32, i32, i32, i8, [3 x i8], i32, i32, i32, i8, i8, i8, i8, i8, i8, [2 x i8], i32, i32, [4 x i8] }>
%"class.lp::lp_settings::default_lp_resource_limit" = type { %"class.lp::lp_resource_limit", ptr, %class.stopwatch }
%"class.lp::lp_resource_limit" = type { ptr }
%class.stopwatch = type <{ %"class.std::chrono::time_point", %"class.std::chrono::duration", i8, [7 x i8] }>
%"class.std::chrono::time_point" = type { %"class.std::chrono::duration" }
%"class.std::chrono::duration" = type { i64 }
%"struct.lp::statistics" = type { i32, i32, i32, i32, i32, i32, i32, i32, i32, i32, i32, i32, i32, i32, i32, i32, i32, i32, i32, i32, i32, i32, i32, i32, i32, i32, i32, i32, i32, i32, i32, i32, i32, i32, i32, i32, i32, i32, i32, i32, i32, i32, i32, %class.statistics }
%class.statistics = type { %class.svector, %class.svector.1 }
%class.svector = type { %class.vector.0 }
%class.vector.0 = type { ptr }
%class.svector.1 = type { %class.vector.2 }
%class.vector.2 = type { ptr }
%class.random_gen = type { i32 }

@.str.21 = private unnamed_addr constant [4 x i8] c"smt\00", align 1
@.str.22 = private unnamed_addr constant [17 x i8] c"arith.enable_hnf\00", align 1
@.str.23 = private unnamed_addr constant [20 x i8] c"arith.propagate_eqs\00", align 1
@.str.24 = private unnamed_addr constant [18 x i8] c"arith.print_stats\00", align 1
@.str.25 = private unnamed_addr constant [26 x i8] c"arith.print_ext_var_names\00", align 1
@.str.26 = private unnamed_addr constant [15 x i8] c"arith.rep_freq\00", align 1
@.str.27 = private unnamed_addr constant [23 x i8] c"arith.simplex_strategy\00", align 1
@.str.28 = private unnamed_addr constant [15 x i8] c"arith.nl.delay\00", align 1
@.str.29 = private unnamed_addr constant [17 x i8] c"arith.lp.dio_eqs\00", align 1
@.str.30 = private unnamed_addr constant [32 x i8] c"arith.lp.dio_cuts_enable_gomory\00", align 1
@.str.31 = private unnamed_addr constant [30 x i8] c"arith.lp.dio_branching_period\00", align 1

; Function Attrs: inlinehint mustprogress nounwind uwtable
define linkonce_odr hidden void @_ZN17smt_params_helperD2Ev(ptr noundef nonnull align 8 dereferenceable(16) %0) unnamed_addr #7 comdat align 2 {
  %2 = alloca ptr, align 8
  store ptr %0, ptr %2, align 8, !tbaa !63
  %3 = load ptr, ptr %2, align 8
  %4 = getelementptr inbounds nuw %struct.smt_params_helper, ptr %3, i32 0, i32 1
  call void @_ZN10params_refD1Ev(ptr noundef nonnull align 8 dereferenceable(8) %4) #3
  ret void
}

; Function Attrs: mustprogress uwtable
define linkonce_odr hidden noundef i32 @_ZNK17smt_params_helper29arith_lp_dio_branching_periodEv(ptr noundef nonnull align 8 dereferenceable(16) %0) #4 comdat align 2 {
  %2 = alloca ptr, align 8
  store ptr %0, ptr %2, align 8, !tbaa !63
  %3 = load ptr, ptr %2, align 8
  %4 = getelementptr inbounds nuw %struct.smt_params_helper, ptr %3, i32 0, i32 0
  %5 = load ptr, ptr %4, align 8, !tbaa !65
  %6 = getelementptr inbounds nuw %struct.smt_params_helper, ptr %3, i32 0, i32 1
  %7 = call noundef i32 @_ZNK10params_ref8get_uintEPKcRKS_j(ptr noundef nonnull align 8 dereferenceable(8) %5, ptr noundef @.str.31, ptr noundef nonnull align 8 dereferenceable(8) %6, i32 noundef 100)
  ret i32 %7
}

; Function Attrs: mustprogress uwtable
define linkonce_odr hidden noundef zeroext i1 @_ZNK17smt_params_helper31arith_lp_dio_cuts_enable_gomoryEv(ptr noundef nonnull align 8 dereferenceable(16) %0) #4 comdat align 2 {
  %2 = alloca ptr, align 8
  store ptr %0, ptr %2, align 8, !tbaa !63
  %3 = load ptr, ptr %2, align 8
  %4 = getelementptr inbounds nuw %struct.smt_params_helper, ptr %3, i32 0, i32 0
  %5 = load ptr, ptr %4, align 8, !tbaa !65
  %6 = getelementptr inbounds nuw %struct.smt_params_helper, ptr %3, i32 0, i32 1
  %7 = call noundef zeroext i1 @_ZNK10params_ref8get_boolEPKcRKS_b(ptr noundef nonnull align 8 dereferenceable(8) %5, ptr noundef @.str.30, ptr noundef nonnull align 8 dereferenceable(8) %6, i1 noundef zeroext false)
  ret i1 %7
}

; Function Attrs: mustprogress uwtable
define linkonce_odr hidden noundef zeroext i1 @_ZNK17smt_params_helper16arith_lp_dio_eqsEv(ptr noundef nonnull align 8 dereferenceable(16) %0) #4 comdat align 2 {
  %2 = alloca ptr, align 8
  store ptr %0, ptr %2, align 8, !tbaa !63
  %3 = load ptr, ptr %2, align 8
  %4 = getelementptr inbounds nuw %struct.smt_params_helper, ptr %3, i32 0, i32 0
  %5 = load ptr, ptr %4, align 8, !tbaa !65
  %6 = getelementptr inbounds nuw %struct.smt_params_helper, ptr %3, i32 0, i32 1
  %7 = call noundef zeroext i1 @_ZNK10params_ref8get_boolEPKcRKS_b(ptr noundef nonnull align 8 dereferenceable(8) %5, ptr noundef @.str.29, ptr noundef nonnull align 8 dereferenceable(8) %6, i1 noundef zeroext false)
  ret i1 %7
}

; Function Attrs: mustprogress uwtable
define linkonce_odr hidden noundef i32 @_ZNK17smt_params_helper14arith_nl_delayEv(ptr noundef nonnull align 8 dereferenceable(16) %0) #4 comdat align 2 {
  %2 = alloca ptr, align 8
  store ptr %0, ptr %2, align 8, !tbaa !63
  %3 = load ptr, ptr %2, align 8
  %4 = getelementptr inbounds nuw %struct.smt_params_helper, ptr %3, i32 0, i32 0
  %5 = load ptr, ptr %4, align 8, !tbaa !65
  %6 = getelementptr inbounds nuw %struct.smt_params_helper, ptr %3, i32 0, i32 1
  %7 = call noundef i32 @_ZNK10params_ref8get_uintEPKcRKS_j(ptr noundef nonnull align 8 dereferenceable(8) %5, ptr noundef @.str.28, ptr noundef nonnull align 8 dereferenceable(8) %6, i32 noundef 10)
  ret i32 %7
}

; Function Attrs: mustprogress uwtable
define linkonce_odr hidden noundef i32 @_ZNK17smt_params_helper22arith_simplex_strategyEv(ptr noundef nonnull align 8 dereferenceable(16) %0) #4 comdat align 2 {
  %2 = alloca ptr, align 8
  store ptr %0, ptr %2, align 8, !tbaa !63
  %3 = load ptr, ptr %2, align 8
  %4 = getelementptr inbounds nuw %struct.smt_params_helper, ptr %3, i32 0, i32 0
  %5 = load ptr, ptr %4, align 8, !tbaa !65
  %6 = getelementptr inbounds nuw %struct.smt_params_helper, ptr %3, i32 0, i32 1
  %7 = call noundef i32 @_ZNK10params_ref8get_uintEPKcRKS_j(ptr noundef nonnull align 8 dereferenceable(8) %5, ptr noundef @.str.27, ptr noundef nonnull align 8 dereferenceable(8) %6, i32 noundef 0)
  ret i32 %7
}

; Function Attrs: mustprogress uwtable
define linkonce_odr hidden noundef i32 @_ZNK17smt_params_helper14arith_rep_freqEv(ptr noundef nonnull align 8 dereferenceable(16) %0) #4 comdat align 2 {
  %2 = alloca ptr, align 8
  store ptr %0, ptr %2, align 8, !tbaa !63
  %3 = load ptr, ptr %2, align 8
  %4 = getelementptr inbounds nuw %struct.smt_params_helper, ptr %3, i32 0, i32 0
  %5 = load ptr, ptr %4, align 8, !tbaa !65
  %6 = getelementptr inbounds nuw %struct.smt_params_helper, ptr %3, i32 0, i32 1
  %7 = call noundef i32 @_ZNK10params_ref8get_uintEPKcRKS_j(ptr noundef nonnull align 8 dereferenceable(8) %5, ptr noundef @.str.26, ptr noundef nonnull align 8 dereferenceable(8) %6, i32 noundef 0)
  ret i32 %7
}

; Function Attrs: mustprogress uwtable
define linkonce_odr hidden noundef zeroext i1 @_ZNK17smt_params_helper25arith_print_ext_var_namesEv(ptr noundef nonnull align 8 dereferenceable(16) %0) #4 comdat align 2 {
  %2 = alloca ptr, align 8
  store ptr %0, ptr %2, align 8, !tbaa !63
  %3 = load ptr, ptr %2, align 8
  %4 = getelementptr inbounds nuw %struct.smt_params_helper, ptr %3, i32 0, i32 0
  %5 = load ptr, ptr %4, align 8, !tbaa !65
  %6 = getelementptr inbounds nuw %struct.smt_params_helper, ptr %3, i32 0, i32 1
  %7 = call noundef zeroext i1 @_ZNK10params_ref8get_boolEPKcRKS_b(ptr noundef nonnull align 8 dereferenceable(8) %5, ptr noundef @.str.25, ptr noundef nonnull align 8 dereferenceable(8) %6, i1 noundef zeroext false)
  ret i1 %7
}

; Function Attrs: mustprogress uwtable
define linkonce_odr hidden noundef zeroext i1 @_ZNK17smt_params_helper17arith_print_statsEv(ptr noundef nonnull align 8 dereferenceable(16) %0) #4 comdat align 2 {
  %2 = alloca ptr, align 8
  store ptr %0, ptr %2, align 8, !tbaa !63
  %3 = load ptr, ptr %2, align 8
  %4 = getelementptr inbounds nuw %struct.smt_params_helper, ptr %3, i32 0, i32 0
  %5 = load ptr, ptr %4, align 8, !tbaa !65
  %6 = getelementptr inbounds nuw %struct.smt_params_helper, ptr %3, i32 0, i32 1
  %7 = call noundef zeroext i1 @_ZNK10params_ref8get_boolEPKcRKS_b(ptr noundef nonnull align 8 dereferenceable(8) %5, ptr noundef @.str.24, ptr noundef nonnull align 8 dereferenceable(8) %6, i1 noundef zeroext false)
  ret i1 %7
}

; Function Attrs: mustprogress uwtable
define linkonce_odr hidden noundef zeroext i1 @_ZNK17smt_params_helper19arith_propagate_eqsEv(ptr noundef nonnull align 8 dereferenceable(16) %0) #4 comdat align 2 {
  %2 = alloca ptr, align 8
  store ptr %0, ptr %2, align 8, !tbaa !63
  %3 = load ptr, ptr %2, align 8
  %4 = getelementptr inbounds nuw %struct.smt_params_helper, ptr %3, i32 0, i32 0
  %5 = load ptr, ptr %4, align 8, !tbaa !65
  %6 = getelementptr inbounds nuw %struct.smt_params_helper, ptr %3, i32 0, i32 1
  %7 = call noundef zeroext i1 @_ZNK10params_ref8get_boolEPKcRKS_b(ptr noundef nonnull align 8 dereferenceable(8) %5, ptr noundef @.str.23, ptr noundef nonnull align 8 dereferenceable(8) %6, i1 noundef zeroext true)
  ret i1 %7
}

; Function Attrs: mustprogress uwtable
define linkonce_odr hidden noundef zeroext i1 @_ZNK17smt_params_helper16arith_enable_hnfEv(ptr noundef nonnull align 8 dereferenceable(16) %0) #4 comdat align 2 {
  %2 = alloca ptr, align 8
  store ptr %0, ptr %2, align 8, !tbaa !63
  %3 = load ptr, ptr %2, align 8
  %4 = getelementptr inbounds nuw %struct.smt_params_helper, ptr %3, i32 0, i32 0
  %5 = load ptr, ptr %4, align 8, !tbaa !65
  %6 = getelementptr inbounds nuw %struct.smt_params_helper, ptr %3, i32 0, i32 1
  %7 = call noundef zeroext i1 @_ZNK10params_ref8get_boolEPKcRKS_b(ptr noundef nonnull align 8 dereferenceable(8) %5, ptr noundef @.str.22, ptr noundef nonnull align 8 dereferenceable(8) %6, i1 noundef zeroext true)
  ret i1 %7
}

; Function Attrs: mustprogress uwtable
define linkonce_odr hidden void @_ZN17smt_params_helperC2ERK10params_ref(ptr noundef nonnull align 8 dereferenceable(16) %0, ptr noundef nonnull align 8 dereferenceable(8) %1) unnamed_addr #4 comdat align 2 {
  %3 = alloca ptr, align 8
  %4 = alloca ptr, align 8
  store ptr %0, ptr %3, align 8, !tbaa !63
  store ptr %1, ptr %4, align 8, !tbaa !30
  %5 = load ptr, ptr %3, align 8
  %6 = getelementptr inbounds nuw %struct.smt_params_helper, ptr %5, i32 0, i32 0
  %7 = load ptr, ptr %4, align 8, !tbaa !30
  store ptr %7, ptr %6, align 8, !tbaa !30
  %8 = getelementptr inbounds nuw %struct.smt_params_helper, ptr %5, i32 0, i32 1
  call void @_ZN7gparams10get_moduleEPKc(ptr dead_on_unwind writable sret(%class.params_ref) align 8 %8, ptr noundef @.str.21)
  ret void
}

; Function Attrs: mustprogress uwtable
define hidden void @_ZN2lp11lp_settings11updt_paramsERK10params_ref(ptr noundef nonnull align 8 dereferenceable(380) %0, ptr noundef nonnull align 8 dereferenceable(8) %1) #4 align 2 personality ptr @__gxx_personality_v0 {
  %3 = alloca ptr, align 8
  %4 = alloca ptr, align 8
  %5 = alloca %struct.smt_params_helper, align 8
  %6 = alloca ptr, align 8
  %7 = alloca i32, align 4
  store ptr %0, ptr %3, align 8, !tbaa !28
  store ptr %1, ptr %4, align 8, !tbaa !30
  %8 = load ptr, ptr %3, align 8
  call void @llvm.lifetime.start.p0(i64 16, ptr %5) #3
  %9 = load ptr, ptr %4, align 8, !tbaa !30
  call void @_ZN17smt_params_helperC2ERK10params_ref(ptr noundef nonnull align 8 dereferenceable(16) %5, ptr noundef nonnull align 8 dereferenceable(8) %9)
  %10 = invoke noundef zeroext i1 @_ZNK17smt_params_helper16arith_enable_hnfEv(ptr noundef nonnull align 8 dereferenceable(16) %5)
          to label %11 unwind label %46

11:                                               ; preds = %2
  %12 = getelementptr inbounds nuw %"struct.lp::lp_settings", ptr %8, i32 0, i32 39
  %13 = zext i1 %10 to i8
  store i8 %13, ptr %12, align 4, !tbaa !32
  %14 = invoke noundef zeroext i1 @_ZNK17smt_params_helper19arith_propagate_eqsEv(ptr noundef nonnull align 8 dereferenceable(16) %5)
          to label %15 unwind label %46

15:                                               ; preds = %11
  %16 = getelementptr inbounds nuw %"struct.lp::lp_settings", ptr %8, i32 0, i32 41
  %17 = zext i1 %14 to i8
  store i8 %17, ptr %16, align 2, !tbaa !54
  %18 = invoke noundef zeroext i1 @_ZNK17smt_params_helper17arith_print_statsEv(ptr noundef nonnull align 8 dereferenceable(16) %5)
          to label %19 unwind label %46

19:                                               ; preds = %15
  %20 = getelementptr inbounds nuw %"struct.lp::lp_settings", ptr %8, i32 0, i32 21
  %21 = zext i1 %18 to i8
  store i8 %21, ptr %20, align 4, !tbaa !55
  %22 = invoke noundef zeroext i1 @_ZNK17smt_params_helper25arith_print_ext_var_namesEv(ptr noundef nonnull align 8 dereferenceable(16) %5)
          to label %23 unwind label %46

23:                                               ; preds = %19
  %24 = getelementptr inbounds nuw %"struct.lp::lp_settings", ptr %8, i32 0, i32 40
  %25 = zext i1 %22 to i8
  store i8 %25, ptr %24, align 1, !tbaa !56
  %26 = invoke noundef i32 @_ZNK17smt_params_helper14arith_rep_freqEv(ptr noundef nonnull align 8 dereferenceable(16) %5)
          to label %27 unwind label %46

27:                                               ; preds = %23
  %28 = getelementptr inbounds nuw %"struct.lp::lp_settings", ptr %8, i32 0, i32 20
  store i32 %26, ptr %28, align 8, !tbaa !57
  %29 = invoke noundef i32 @_ZNK17smt_params_helper22arith_simplex_strategyEv(ptr noundef nonnull align 8 dereferenceable(16) %5)
          to label %30 unwind label %46

30:                                               ; preds = %27
  %31 = getelementptr inbounds nuw %"struct.lp::lp_settings", ptr %8, i32 0, i32 19
  store i32 %29, ptr %31, align 4, !tbaa !58
  %32 = invoke noundef i32 @_ZNK17smt_params_helper14arith_nl_delayEv(ptr noundef nonnull align 8 dereferenceable(16) %5)
          to label %33 unwind label %46

33:                                               ; preds = %30
  %34 = getelementptr inbounds nuw %"struct.lp::lp_settings", ptr %8, i32 0, i32 38
  store i32 %32, ptr %34, align 8, !tbaa !59
  %35 = invoke noundef zeroext i1 @_ZNK17smt_params_helper16arith_lp_dio_eqsEv(ptr noundef nonnull align 8 dereferenceable(16) %5)
          to label %36 unwind label %46

36:                                               ; preds = %33
  %37 = getelementptr inbounds nuw %"struct.lp::lp_settings", ptr %8, i32 0, i32 42
  %38 = zext i1 %35 to i8
  store i8 %38, ptr %37, align 1, !tbaa !60
  %39 = invoke noundef zeroext i1 @_ZNK17smt_params_helper31arith_lp_dio_cuts_enable_gomoryEv(ptr noundef nonnull align 8 dereferenceable(16) %5)
          to label %40 unwind label %46

40:                                               ; preds = %36
  %41 = getelementptr inbounds nuw %"struct.lp::lp_settings", ptr %8, i32 0, i32 43
  %42 = zext i1 %39 to i8
  store i8 %42, ptr %41, align 8, !tbaa !61
  %43 = invoke noundef i32 @_ZNK17smt_params_helper29arith_lp_dio_branching_periodEv(ptr noundef nonnull align 8 dereferenceable(16) %5)
          to label %44 unwind label %46

44:                                               ; preds = %40
  %45 = getelementptr inbounds nuw %"struct.lp::lp_settings", ptr %8, i32 0, i32 46
  store i32 %43, ptr %45, align 4, !tbaa !62
  call void @_ZN17smt_params_helperD2Ev(ptr noundef nonnull align 8 dereferenceable(16) %5) #3
  call void @llvm.lifetime.end.p0(i64 16, ptr %5) #3
  ret void

46:                                               ; preds = %40, %36, %33, %30, %27, %23, %19, %15, %11, %2
  %47 = landingpad { ptr, i32 }
          cleanup
  %48 = extractvalue { ptr, i32 } %47, 0
  store ptr %48, ptr %6, align 8
  %49 = extractvalue { ptr, i32 } %47, 1
  store i32 %49, ptr %7, align 4
  call void @_ZN17smt_params_helperD2Ev(ptr noundef nonnull align 8 dereferenceable(16) %5) #3
  call void @llvm.lifetime.end.p0(i64 16, ptr %5) #3
  br label %50

50:                                               ; preds = %46
  %51 = load ptr, ptr %6, align 8
  %52 = load i32, ptr %7, align 4
  %53 = insertvalue { ptr, i32 } poison, ptr %51, 0
  %54 = insertvalue { ptr, i32 } %53, i32 %52, 1
  resume { ptr, i32 } %54
}