; Function Attrs: mustprogress uwtable
define hidden void @_ZN2lp11lp_settings11updt_paramsERK10params_ref(ptr noundef nonnull writeonly align 8 captures(none) dereferenceable(380) %0, ptr noundef nonnull align 8 dereferenceable(8) %1) local_unnamed_addr #3 align 2 personality ptr @__gxx_personality_v0 {
  %3 = alloca %struct.smt_params_helper, align 8
  call void @llvm.lifetime.start.p0(i64 16, ptr nonnull %3) #15
  store ptr %1, ptr %3, align 8, !tbaa !27
  %4 = getelementptr inbounds nuw i8, ptr %3, i64 8
  call void @_ZN7gparams10get_moduleEPKc(ptr dead_on_unwind nonnull writable sret(%class.params_ref) align 8 %4, ptr noundef nonnull @.str.21)
  %5 = load ptr, ptr %3, align 8, !tbaa !29
  %6 = invoke noundef zeroext i1 @_ZNK10params_ref8get_boolEPKcRKS_b(ptr noundef nonnull align 8 dereferenceable(8) %5, ptr noundef nonnull @.str.22, ptr noundef nonnull align 8 dereferenceable(8) %4, i1 noundef zeroext true)
          to label %_ZNK17smt_params_helper16arith_enable_hnfEv.exit unwind label %41

_ZNK17smt_params_helper16arith_enable_hnfEv.exit: ; preds = %2
  %7 = getelementptr inbounds nuw i8, ptr %0, i64 364
  %8 = zext i1 %6 to i8
  store i8 %8, ptr %7, align 4, !tbaa !33
  %9 = load ptr, ptr %3, align 8, !tbaa !29
  %10 = invoke noundef zeroext i1 @_ZNK10params_ref8get_boolEPKcRKS_b(ptr noundef nonnull align 8 dereferenceable(8) %9, ptr noundef nonnull @.str.23, ptr noundef nonnull align 8 dereferenceable(8) %4, i1 noundef zeroext true)
          to label %_ZNK17smt_params_helper19arith_propagate_eqsEv.exit unwind label %41

_ZNK17smt_params_helper19arith_propagate_eqsEv.exit: ; preds = %_ZNK17smt_params_helper16arith_enable_hnfEv.exit
  %11 = getelementptr inbounds nuw i8, ptr %0, i64 366
  %12 = zext i1 %10 to i8
  store i8 %12, ptr %11, align 2, !tbaa !55
  %13 = load ptr, ptr %3, align 8, !tbaa !29
  %14 = invoke noundef zeroext i1 @_ZNK10params_ref8get_boolEPKcRKS_b(ptr noundef nonnull align 8 dereferenceable(8) %13, ptr noundef nonnull @.str.24, ptr noundef nonnull align 8 dereferenceable(8) %4, i1 noundef zeroext false)
          to label %_ZNK17smt_params_helper17arith_print_statsEv.exit unwind label %41

_ZNK17smt_params_helper17arith_print_statsEv.exit: ; preds = %_ZNK17smt_params_helper19arith_propagate_eqsEv.exit
  %15 = getelementptr inbounds nuw i8, ptr %0, i64 308
  %16 = zext i1 %14 to i8
  store i8 %16, ptr %15, align 4, !tbaa !56
  %17 = load ptr, ptr %3, align 8, !tbaa !29
  %18 = invoke noundef zeroext i1 @_ZNK10params_ref8get_boolEPKcRKS_b(ptr noundef nonnull align 8 dereferenceable(8) %17, ptr noundef nonnull @.str.25, ptr noundef nonnull align 8 dereferenceable(8) %4, i1 noundef zeroext false)
          to label %_ZNK17smt_params_helper25arith_print_ext_var_namesEv.exit unwind label %41

_ZNK17smt_params_helper25arith_print_ext_var_namesEv.exit: ; preds = %_ZNK17smt_params_helper17arith_print_statsEv.exit
  %19 = getelementptr inbounds nuw i8, ptr %0, i64 365
  %20 = zext i1 %18 to i8
  store i8 %20, ptr %19, align 1, !tbaa !57
  %21 = load ptr, ptr %3, align 8, !tbaa !29
  %22 = invoke noundef i32 @_ZNK10params_ref8get_uintEPKcRKS_j(ptr noundef nonnull align 8 dereferenceable(8) %21, ptr noundef nonnull @.str.26, ptr noundef nonnull align 8 dereferenceable(8) %4, i32 noundef 0)
          to label %_ZNK17smt_params_helper14arith_rep_freqEv.exit unwind label %41

_ZNK17smt_params_helper14arith_rep_freqEv.exit:   ; preds = %_ZNK17smt_params_helper25arith_print_ext_var_namesEv.exit
  %23 = getelementptr inbounds nuw i8, ptr %0, i64 304
  store i32 %22, ptr %23, align 8, !tbaa !58
  %24 = load ptr, ptr %3, align 8, !tbaa !29
  %25 = invoke noundef i32 @_ZNK10params_ref8get_uintEPKcRKS_j(ptr noundef nonnull align 8 dereferenceable(8) %24, ptr noundef nonnull @.str.27, ptr noundef nonnull align 8 dereferenceable(8) %4, i32 noundef 0)
          to label %_ZNK17smt_params_helper22arith_simplex_strategyEv.exit unwind label %41

_ZNK17smt_params_helper22arith_simplex_strategyEv.exit: ; preds = %_ZNK17smt_params_helper14arith_rep_freqEv.exit
  %26 = getelementptr inbounds nuw i8, ptr %0, i64 300
  store i32 %25, ptr %26, align 4, !tbaa !59
  %27 = load ptr, ptr %3, align 8, !tbaa !29
  %28 = invoke noundef i32 @_ZNK10params_ref8get_uintEPKcRKS_j(ptr noundef nonnull align 8 dereferenceable(8) %27, ptr noundef nonnull @.str.28, ptr noundef nonnull align 8 dereferenceable(8) %4, i32 noundef 10)
          to label %_ZNK17smt_params_helper14arith_nl_delayEv.exit unwind label %41

_ZNK17smt_params_helper14arith_nl_delayEv.exit:   ; preds = %_ZNK17smt_params_helper22arith_simplex_strategyEv.exit
  %29 = getelementptr inbounds nuw i8, ptr %0, i64 360
  store i32 %28, ptr %29, align 8, !tbaa !60
  %30 = load ptr, ptr %3, align 8, !tbaa !29
  %31 = invoke noundef zeroext i1 @_ZNK10params_ref8get_boolEPKcRKS_b(ptr noundef nonnull align 8 dereferenceable(8) %30, ptr noundef nonnull @.str.29, ptr noundef nonnull align 8 dereferenceable(8) %4, i1 noundef zeroext false)
          to label %_ZNK17smt_params_helper16arith_lp_dio_eqsEv.exit unwind label %41

_ZNK17smt_params_helper16arith_lp_dio_eqsEv.exit: ; preds = %_ZNK17smt_params_helper14arith_nl_delayEv.exit
  %32 = getelementptr inbounds nuw i8, ptr %0, i64 367
  %33 = zext i1 %31 to i8
  store i8 %33, ptr %32, align 1, !tbaa !61
  %34 = load ptr, ptr %3, align 8, !tbaa !29
  %35 = invoke noundef zeroext i1 @_ZNK10params_ref8get_boolEPKcRKS_b(ptr noundef nonnull align 8 dereferenceable(8) %34, ptr noundef nonnull @.str.30, ptr noundef nonnull align 8 dereferenceable(8) %4, i1 noundef zeroext false)
          to label %_ZNK17smt_params_helper31arith_lp_dio_cuts_enable_gomoryEv.exit unwind label %41

_ZNK17smt_params_helper31arith_lp_dio_cuts_enable_gomoryEv.exit: ; preds = %_ZNK17smt_params_helper16arith_lp_dio_eqsEv.exit
  %36 = getelementptr inbounds nuw i8, ptr %0, i64 368
  %37 = zext i1 %35 to i8
  store i8 %37, ptr %36, align 8, !tbaa !62
  %38 = load ptr, ptr %3, align 8, !tbaa !29
  %39 = invoke noundef i32 @_ZNK10params_ref8get_uintEPKcRKS_j(ptr noundef nonnull align 8 dereferenceable(8) %38, ptr noundef nonnull @.str.31, ptr noundef nonnull align 8 dereferenceable(8) %4, i32 noundef 100)
          to label %_ZNK17smt_params_helper29arith_lp_dio_branching_periodEv.exit unwind label %41

_ZNK17smt_params_helper29arith_lp_dio_branching_periodEv.exit: ; preds = %_ZNK17smt_params_helper31arith_lp_dio_cuts_enable_gomoryEv.exit
  %40 = getelementptr inbounds nuw i8, ptr %0, i64 372
  store i32 %39, ptr %40, align 4, !tbaa !63
  call void @_ZN10params_refD1Ev(ptr noundef nonnull align 8 dereferenceable(8) %4) #15
  call void @llvm.lifetime.end.p0(i64 16, ptr nonnull %3) #15
  ret void

41:                                               ; preds = %_ZNK17smt_params_helper31arith_lp_dio_cuts_enable_gomoryEv.exit, %_ZNK17smt_params_helper16arith_lp_dio_eqsEv.exit, %_ZNK17smt_params_helper14arith_nl_delayEv.exit, %_ZNK17smt_params_helper22arith_simplex_strategyEv.exit, %_ZNK17smt_params_helper14arith_rep_freqEv.exit, %_ZNK17smt_params_helper25arith_print_ext_var_namesEv.exit, %_ZNK17smt_params_helper17arith_print_statsEv.exit, %_ZNK17smt_params_helper19arith_propagate_eqsEv.exit, %_ZNK17smt_params_helper16arith_enable_hnfEv.exit, %2
  %42 = landingpad { ptr, i32 }
          cleanup
  call void @_ZN10params_refD1Ev(ptr noundef nonnull align 8 dereferenceable(8) %4) #15
  call void @llvm.lifetime.end.p0(i64 16, ptr nonnull %3) #15
  resume { ptr, i32 } %42
}